target datalayout = "e-m:e-p270:32:32-p271:32:32-p272:64:64-i64:64-i128:128-f80:128-n8:16:32:64-S128"
target triple = "x86_64-pc-linux-gnu"

%"class.VrmlTranslator::Parser" = type { i32, ptr, i32, i32, ptr, ptr, ptr, ptr, ptr, %"class.std::map", %"class.std::set", %"class.std::set" }
%"class.std::map" = type { %"class.std::_Rb_tree" }
%"class.std::_Rb_tree" = type { %"struct.std::_Rb_tree<QString, std::pair<const QString, QString>, std::_Select1st<std::pair<const QString, QString>>, std::less<QString>>::_Rb_tree_impl" }
%"struct.std::_Rb_tree<QString, std::pair<const QString, QString>, std::_Select1st<std::pair<const QString, QString>>, std::less<QString>>::_Rb_tree_impl" = type { %"struct.std::_Rb_tree_key_compare", %"struct.std::_Rb_tree_header" }
%"struct.std::_Rb_tree_key_compare" = type { %"struct.std::less" }
%"struct.std::less" = type { i8 }
%"struct.std::_Rb_tree_header" = type { %"struct.std::_Rb_tree_node_base", i64 }
%"struct.std::_Rb_tree_node_base" = type { i32, ptr, ptr, ptr }
%"class.std::set" = type { %"class.std::_Rb_tree.0" }
%"class.std::_Rb_tree.0" = type { %"struct.std::_Rb_tree<QString, QString, std::_Identity<QString>, std::less<QString>>::_Rb_tree_impl" }
%"struct.std::_Rb_tree<QString, QString, std::_Identity<QString>, std::less<QString>>::_Rb_tree_impl" = type { %"struct.std::_Rb_tree_key_compare", %"struct.std::_Rb_tree_header" }
%"class.VrmlTranslator::Token" = type { i32, i32, i32, i32, ptr, ptr }

; Function Attrs: mustprogress nounwind uwtable
define noundef zeroext i1 @_ZN14VrmlTranslator6Parser7StartOfEi(ptr noundef nonnull align 8 dereferenceable(208) %0, i32 noundef %1) #2 align 2 {
  %3 = alloca ptr, align 8
  %4 = alloca i32, align 4
  %5 = alloca i8, align 1
  %6 = alloca i8, align 1
  store ptr %0, ptr %3, align 8
  store i32 %1, ptr %4, align 4
  %7 = load ptr, ptr %3, align 8
  store i8 1, ptr %5, align 1
  store i8 0, ptr %6, align 1
  %8 = load i32, ptr %4, align 4
  %9 = sext i32 %8 to i64
  %10 = getelementptr inbounds [12 x [87 x i8]], ptr @_ZZN14VrmlTranslator6Parser7StartOfEiE3set, i64 0, i64 %9
  %11 = getelementptr inbounds %"class.VrmlTranslator::Parser", ptr %7, i32 0, i32 7
  %12 = load ptr, ptr %11, align 8
  %13 = getelementptr inbounds %"class.VrmlTranslator::Token", ptr %12, i32 0, i32 0
  %14 = load i32, ptr %13, align 8
  %15 = sext i32 %14 to i64
  %16 = getelementptr inbounds [87 x i8], ptr %10, i64 0, i64 %15
  %17 = load i8, ptr %16, align 1
  %18 = trunc i8 %17 to i1
  ret i1 %18
}

; Function Attrs: mustprogress uwtable
define void @_ZN14VrmlTranslator6Parser10ScriptBodyEv(ptr noundef nonnull align 8 dereferenceable(208) %0) #0 align 2 {
  %2 = alloca ptr, align 8
  store ptr %0, ptr %2, align 8
  %3 = load ptr, ptr %2, align 8
  br label %4

4:                                                ; preds = %6, %1
  %5 = call noundef zeroext i1 @_ZN14VrmlTranslator6Parser7StartOfEi(ptr noundef nonnull align 8 dereferenceable(208) %3, i32 noundef 7)
  br i1 %5, label %6, label %7

6:                                                ; preds = %4
  call void @_ZN14VrmlTranslator6Parser17ScriptBodyElementEv(ptr noundef nonnull align 8 dereferenceable(208) %3)
  br label %4, !llvm.loop !15

7:                                                ; preds = %4
  ret void
}