; Function Attrs: mustprogress uwtable
define void @_ZN14VrmlTranslator6Parser10ScriptBodyEv(ptr noundef nonnull align 8 dereferenceable(208) %0) local_unnamed_addr #0 align 2 {
  %2 = getelementptr inbounds nuw i8, ptr %0, i64 48
  %3 = load ptr, ptr %2, align 8
  %4 = load i32, ptr %3, align 8
  %5 = sext i32 %4 to i64
  %6 = getelementptr inbounds [12 x [87 x i8]], ptr @_ZZN14VrmlTranslator6Parser7StartOfEiE3set, i64 0, i64 7, i64 %5
  %7 = load i8, ptr %6, align 1
  %8 = trunc i8 %7 to i1
  br i1 %8, label %.lr.ph, label %._crit_edge

.lr.ph:                                           ; preds = %1, %.lr.ph
  tail call void @_ZN14VrmlTranslator6Parser17ScriptBodyElementEv(ptr noundef nonnull align 8 dereferenceable(208) %0)
  %9 = load ptr, ptr %2, align 8
  %10 = load i32, ptr %9, align 8
  %11 = sext i32 %10 to i64
  %12 = getelementptr inbounds [12 x [87 x i8]], ptr @_ZZN14VrmlTranslator6Parser7StartOfEiE3set, i64 0, i64 7, i64 %11
  %13 = load i8, ptr %12, align 1
  %14 = trunc i8 %13 to i1
  br i1 %14, label %.lr.ph, label %._crit_edge, !llvm.loop !16

._crit_edge:                                      ; preds = %.lr.ph, %1
  ret void
}